target datalayout = "e-m:e-p270:32:32-p271:32:32-p272:64:64-i64:64-i128:128-f80:128-n8:16:32:64-S128"
target triple = "x86_64-pc-linux-gnu"

%struct.redisServer = type { i32, i64, ptr, ptr, ptr, i32, i32, i32, i32, i32, ptr, ptr, ptr, ptr, ptr, i32, i32, i32, i32, i64, i32, i32, i32, i32, ptr, i32, i32, [41 x i8], i32, i64, i32, i32, i32, ptr, ptr, i32, i32, i64, ptr, ptr, ptr, ptr, [2 x i32], i32, i32, i32, i32, i32, i32, [16 x ptr], i32, ptr, ptr, i32, [8 x %struct.connListener], i32, %struct.connListener, ptr, ptr, ptr, ptr, ptr, ptr, ptr, ptr, ptr, ptr, i32, ptr, i32, ptr, [3 x %struct.pause_event], [256 x i8], ptr, i64, i32, i32, [128 x i32], i32, i32, i64, i32, i32, i32, i32, i32, i64, i64, i64, i64, i64, i64, i64, i64, i64, i64, double, i64, i64, i64, i64, i64, i64, i64, i64, i64, i64, i64, i64, i64, i64, i64, i64, i64, i64, i64, i64, i64, double, i64, i64, i64, i64, i64, ptr, i64, i64, i64, %struct.malloc_stats, i64, i64, i64, i64, i64, i64, i64, i64, i64, i64, i64, i64, double, [4 x i64], i64, i64, i64, i64, [128 x i64], [128 x i64], i64, i64, [7 x %struct.anon], i64, i64, i64, i64, i64, i64, [4 x %struct.durationStats], i32, i32, i32, i32, i32, i32, i32, i32, i32, i32, i32, i32, i64, i32, i32, i32, i32, i64, i64, i32, i32, i32, i32, i32, ptr, [3 x %struct.clientBufferLimitsConfig], i32, i32, i32, ptr, i32, i32, i32, i32, i32, i32, ptr, ptr, i32, i32, i64, i64, i64, i64, i64, i32, i32, ptr, i32, i32, i64, i64, i64, i64, i64, i32, i32, i64, i32, i32, i32, i32, i32, i32, i32, i32, ptr, i32, i64, i64, i64, i64, i32, ptr, i32, ptr, i32, i32, i32, i64, i64, i64, i64, i32, i32, i32, i32, i32, i32, ptr, i32, i32, ptr, i32, i32, i32, [2 x i32], i32, %struct.redisOpArray, i32, ptr, i32, ptr, i32, i32, i32, i32, i32, i32, i32, [41 x i8], [41 x i8], i64, i64, i64, i64, i32, i32, ptr, i64, i64, %struct.replDataBuf, i64, i64, i32, i32, i32, i32, i32, i32, i32, i32, i32, i64, ptr, i64, ptr, ptr, ptr, i32, i32, ptr, ptr, i32, i32, i32, i64, i64, i64, i64, ptr, ptr, i32, ptr, i64, i32, i32, i32, i64, i32, i32, i32, i32, ptr, i32, i32, [41 x i8], i64, i32, ptr, i32, i32, i64, i64, i32, i32, i32, i32, i32, i64, [3 x i32], i32, i32, i32, [10 x i32], ptr, ptr, i32, i64, ptr, ptr, i32, i32, i32, i32, i64, i64, i64, i64, i64, i64, i64, i64, i64, i64, i32, i32, i64, i64, i32, i64, i64, i64, i64, i64, ptr, ptr, i32, ptr, i32, i32, i32, i32, i64, i64, ptr, ptr, i32, i32, i32, i32, i32, ptr, ptr, ptr, i32, i32, i32, i32, i32, i32, i32, i64, i32, i32, i64, i32, i32, i32, i32, i32, i32, i32, i64, ptr, ptr, i64, ptr, i32, %struct.aclInfo, i32, i64, i32, i32, i32, %struct.redisTLSContextConfig, ptr, ptr, ptr, ptr, ptr, i64, i32, ptr, i32, i32, i32, i64, i32, ptr }
%struct.connListener = type { [16 x i32], i32, ptr, i32, i32, ptr, ptr }
%struct.pause_event = type { i32, i64 }
%struct.malloc_stats = type { i64, i64, i64, i64, i64, i64, i64, i64, i64, i64, i64 }
%struct.anon = type { i64, i64, [16 x i64], i32 }
%struct.durationStats = type { i64, i64, i64 }
%struct.clientBufferLimitsConfig = type { i64, i64, i64 }
%struct.redisOpArray = type { ptr, i32, i32 }
%struct.replDataBuf = type { ptr, i64, i64, i64, i64 }
%struct.aclInfo = type { i64, i64, i64, i64 }
%struct.redisTLSContextConfig = type { ptr, ptr, ptr, ptr, ptr, ptr, ptr, ptr, ptr, ptr, ptr, ptr, i32, i32, i32, i32 }
%struct.sdshdr8 = type { i8, i8, i8, [0 x i8] }
%struct.sdshdr16 = type <{ i16, i16, i8, [0 x i8] }>
%struct.sdshdr32 = type <{ i32, i32, i8, [0 x i8] }>
%struct.sdshdr64 = type <{ i64, i64, i8, [0 x i8] }>
%struct.list = type { ptr, ptr, ptr, ptr, ptr, i64 }
%struct.client = type { i64, i64, ptr, i8, i8, i8, i8, i32, ptr, ptr, ptr, ptr, ptr, i64, i64, i32, ptr, i32, i32, ptr, i64, ptr, ptr, ptr, ptr, ptr, i32, i32, i64, ptr, i64, ptr, i64, i64, i64, i32, ptr, i64, i64, i32, i32, i32, i32, i64, i64, ptr, i64, i64, i64, i64, i64, i64, i64, i64, [41 x i8], i32, ptr, i32, i32, i64, %struct.multiState, %struct.blockingState, i64, ptr, ptr, ptr, ptr, ptr, ptr, ptr, ptr, ptr, ptr, ptr, ptr, ptr, ptr, i64, ptr, i64, i32, ptr, ptr, ptr, i64, %struct.listNode, i64, i64, i32, i64, ptr }
%struct.multiState = type { ptr, i32, i32, i32, i64, i32 }
%struct.blockingState = type { i32, i64, i32, ptr, i32, i32, i64, ptr, ptr, i64 }
%struct.listNode = type { ptr, ptr, ptr }

@server = external global %struct.redisServer, align 8

; Function Attrs: inlinehint nounwind uwtable
define internal i32 @_clientHasPendingRepliesNonSlave(ptr noundef %0) #4 {
  %2 = alloca ptr, align 8
  store ptr %0, ptr %2, align 8, !tbaa !24
  %3 = load ptr, ptr %2, align 8, !tbaa !24
  %4 = getelementptr inbounds nuw %struct.client, ptr %3, i32 0, i32 88
  %5 = load i32, ptr %4, align 8, !tbaa !79
  %6 = icmp ne i32 %5, 0
  br i1 %6, label %14, label %7

7:                                                ; preds = %1
  %8 = load ptr, ptr %2, align 8, !tbaa !24
  %9 = getelementptr inbounds nuw %struct.client, ptr %8, i32 0, i32 29
  %10 = load ptr, ptr %9, align 8, !tbaa !125
  %11 = getelementptr inbounds nuw %struct.list, ptr %10, i32 0, i32 5
  %12 = load i64, ptr %11, align 8, !tbaa !182
  %13 = icmp ne i64 %12, 0
  br label %14

14:                                               ; preds = %7, %1
  %15 = phi i1 [ true, %1 ], [ %13, %7 ]
  %16 = zext i1 %15 to i32
  ret i32 %16
}

; Function Attrs: inlinehint nounwind uwtable
define internal i32 @clientTypeIsSlave(ptr noundef %0) #4 {
  %2 = alloca i32, align 4
  %3 = alloca ptr, align 8
  store ptr %0, ptr %3, align 8, !tbaa !24
  %4 = load ptr, ptr %3, align 8, !tbaa !24
  %5 = getelementptr inbounds nuw %struct.client, ptr %4, i32 0, i32 1
  %6 = load i64, ptr %5, align 8, !tbaa !104
  %7 = and i64 %6, 1
  %8 = icmp ne i64 %7, 0
  br i1 %8, label %9, label %16

9:                                                ; preds = %1
  %10 = load ptr, ptr %3, align 8, !tbaa !24
  %11 = getelementptr inbounds nuw %struct.client, ptr %10, i32 0, i32 1
  %12 = load i64, ptr %11, align 8, !tbaa !104
  %13 = and i64 %12, 4
  %14 = icmp ne i64 %13, 0
  %15 = xor i1 %14, true
  br label %16

16:                                               ; preds = %9, %1
  %17 = phi i1 [ false, %1 ], [ %15, %9 ]
  %18 = xor i1 %17, true
  %19 = xor i1 %18, true
  %20 = zext i1 %19 to i32
  %21 = sext i32 %20 to i64
  %22 = call i64 @llvm.expect.i64(i64 %21, i64 0)
  %23 = icmp ne i64 %22, 0
  br i1 %23, label %24, label %25

24:                                               ; preds = %16
  store i32 1, ptr %2, align 4
  br label %26

25:                                               ; preds = %16
  store i32 0, ptr %2, align 4
  br label %26

26:                                               ; preds = %25, %24
  %27 = load i32, ptr %2, align 4
  ret i32 %27
}

; Function Attrs: nounwind uwtable
define dso_local void @putClientInPendingWriteQueue(ptr noundef %0) #0 {
  %2 = alloca ptr, align 8
  store ptr %0, ptr %2, align 8, !tbaa !24
  %3 = load ptr, ptr %2, align 8, !tbaa !24
  %4 = getelementptr inbounds nuw %struct.client, ptr %3, i32 0, i32 1
  %5 = load i64, ptr %4, align 8, !tbaa !104
  %6 = and i64 %5, 2097152
  %7 = icmp ne i64 %6, 0
  br i1 %7, label %36, label %8

8:                                                ; preds = %1
  %9 = load ptr, ptr %2, align 8, !tbaa !24
  %10 = getelementptr inbounds nuw %struct.client, ptr %9, i32 0, i32 40
  %11 = load i32, ptr %10, align 4, !tbaa !111
  %12 = icmp eq i32 %11, 0
  br i1 %12, label %28, label %13

13:                                               ; preds = %8
  %14 = load ptr, ptr %2, align 8, !tbaa !24
  %15 = getelementptr inbounds nuw %struct.client, ptr %14, i32 0, i32 40
  %16 = load i32, ptr %15, align 4, !tbaa !111
  %17 = icmp eq i32 %16, 12
  br i1 %17, label %28, label %18

18:                                               ; preds = %13
  %19 = load ptr, ptr %2, align 8, !tbaa !24
  %20 = getelementptr inbounds nuw %struct.client, ptr %19, i32 0, i32 40
  %21 = load i32, ptr %20, align 4, !tbaa !111
  %22 = icmp eq i32 %21, 9
  br i1 %22, label %23, label %36

23:                                               ; preds = %18
  %24 = load ptr, ptr %2, align 8, !tbaa !24
  %25 = getelementptr inbounds nuw %struct.client, ptr %24, i32 0, i32 41
  %26 = load i32, ptr %25, align 8, !tbaa !112
  %27 = icmp ne i32 %26, 0
  br i1 %27, label %36, label %28

28:                                               ; preds = %23, %13, %8
  %29 = load ptr, ptr %2, align 8, !tbaa !24
  %30 = getelementptr inbounds nuw %struct.client, ptr %29, i32 0, i32 1
  %31 = load i64, ptr %30, align 8, !tbaa !104
  %32 = or i64 %31, 2097152
  store i64 %32, ptr %30, align 8, !tbaa !104
  %33 = load ptr, ptr getelementptr inbounds nuw (%struct.redisServer, ptr @server, i32 0, i32 59), align 8, !tbaa !165
  %34 = load ptr, ptr %2, align 8, !tbaa !24
  %35 = getelementptr inbounds nuw %struct.client, ptr %34, i32 0, i32 85
  call void @listLinkNodeHead(ptr noundef %33, ptr noundef %35)
  br label %36

36:                                               ; preds = %28, %23, %18, %1
  ret void
}

; Function Attrs: nounwind uwtable
define dso_local i32 @clientHasPendingReplies(ptr noundef %0) #0 {
  %2 = alloca i32, align 4
  %3 = alloca ptr, align 8
  store ptr %0, ptr %3, align 8, !tbaa !24
  %4 = load ptr, ptr %3, align 8, !tbaa !24
  %5 = call i32 @clientTypeIsSlave(ptr noundef %4)
  %6 = icmp ne i32 %5, 0
  %7 = xor i1 %6, true
  %8 = xor i1 %7, true
  %9 = zext i1 %8 to i32
  %10 = sext i32 %9 to i64
  %11 = call i64 @llvm.expect.i64(i64 %10, i64 0)
  %12 = icmp ne i64 %11, 0
  br i1 %12, label %13, label %16

13:                                               ; preds = %1
  %14 = load ptr, ptr %3, align 8, !tbaa !24
  %15 = call i32 @_clientHasPendingRepliesSlave(ptr noundef %14)
  store i32 %15, ptr %2, align 4
  br label %19

16:                                               ; preds = %1
  %17 = load ptr, ptr %3, align 8, !tbaa !24
  %18 = call i32 @_clientHasPendingRepliesNonSlave(ptr noundef %17)
  store i32 %18, ptr %2, align 4
  br label %19

19:                                               ; preds = %16, %13
  %20 = load i32, ptr %2, align 4
  ret i32 %20
}

; Function Attrs: inlinehint nounwind uwtable
define internal i64 @sdslen(ptr noundef %0) #4 {
  %2 = alloca i64, align 8
  %3 = alloca ptr, align 8
  %4 = alloca i8, align 1
  %5 = alloca i32, align 4
  store ptr %0, ptr %3, align 8, !tbaa !5
  call void @llvm.lifetime.start.p0(i64 1, ptr %4) #16
  %6 = load ptr, ptr %3, align 8, !tbaa !5
  %7 = getelementptr inbounds i8, ptr %6, i64 -1
  %8 = load i8, ptr %7, align 1, !tbaa !16
  store i8 %8, ptr %4, align 1, !tbaa !16
  %9 = load i8, ptr %4, align 1, !tbaa !16
  %10 = zext i8 %9 to i32
  %11 = and i32 %10, 7
  switch i32 %11, label %40 [
    i32 0, label %12
    i32 1, label %17
    i32 2, label %23
    i32 3, label %29
    i32 4, label %35
  ]

12:                                               ; preds = %1
  %13 = load i8, ptr %4, align 1, !tbaa !16
  %14 = zext i8 %13 to i32
  %15 = ashr i32 %14, 3
  %16 = sext i32 %15 to i64
  store i64 %16, ptr %2, align 8
  store i32 1, ptr %5, align 4
  br label %41

17:                                               ; preds = %1
  %18 = load ptr, ptr %3, align 8, !tbaa !5
  %19 = getelementptr inbounds i8, ptr %18, i64 -3
  %20 = getelementptr inbounds nuw %struct.sdshdr8, ptr %19, i32 0, i32 0
  %21 = load i8, ptr %20, align 1, !tbaa !16
  %22 = zext i8 %21 to i64
  store i64 %22, ptr %2, align 8
  store i32 1, ptr %5, align 4
  br label %41

23:                                               ; preds = %1
  %24 = load ptr, ptr %3, align 8, !tbaa !5
  %25 = getelementptr inbounds i8, ptr %24, i64 -5
  %26 = getelementptr inbounds nuw %struct.sdshdr16, ptr %25, i32 0, i32 0
  %27 = load i16, ptr %26, align 1, !tbaa !17
  %28 = zext i16 %27 to i64
  store i64 %28, ptr %2, align 8
  store i32 1, ptr %5, align 4
  br label %41

29:                                               ; preds = %1
  %30 = load ptr, ptr %3, align 8, !tbaa !5
  %31 = getelementptr inbounds i8, ptr %30, i64 -9
  %32 = getelementptr inbounds nuw %struct.sdshdr32, ptr %31, i32 0, i32 0
  %33 = load i32, ptr %32, align 1, !tbaa !19
  %34 = zext i32 %33 to i64
  store i64 %34, ptr %2, align 8
  store i32 1, ptr %5, align 4
  br label %41

35:                                               ; preds = %1
  %36 = load ptr, ptr %3, align 8, !tbaa !5
  %37 = getelementptr inbounds i8, ptr %36, i64 -17
  %38 = getelementptr inbounds nuw %struct.sdshdr64, ptr %37, i32 0, i32 0
  %39 = load i64, ptr %38, align 1, !tbaa !20
  store i64 %39, ptr %2, align 8
  store i32 1, ptr %5, align 4
  br label %41

40:                                               ; preds = %1
  store i64 0, ptr %2, align 8
  store i32 1, ptr %5, align 4
  br label %41

41:                                               ; preds = %40, %35, %29, %23, %17, %12
  call void @llvm.lifetime.end.p0(i64 1, ptr %4) #16
  %42 = load i64, ptr %2, align 8
  ret i64 %42
}

; Function Attrs: inlinehint nounwind uwtable
define internal i32 @_prepareClientToWrite(ptr noundef %0) #4 {
  %2 = alloca i32, align 4
  %3 = alloca ptr, align 8
  %4 = alloca i64, align 8
  %5 = alloca i32, align 4
  store ptr %0, ptr %3, align 8, !tbaa !24
  call void @llvm.lifetime.start.p0(i64 8, ptr %4) #16
  %6 = load ptr, ptr %3, align 8, !tbaa !24
  %7 = getelementptr inbounds nuw %struct.client, ptr %6, i32 0, i32 1
  %8 = load i64, ptr %7, align 8, !tbaa !104
  store i64 %8, ptr %4, align 8, !tbaa !20
  %9 = load i64, ptr %4, align 8, !tbaa !20
  %10 = and i64 %9, 134217984
  %11 = icmp ne i64 %10, 0
  %12 = xor i1 %11, true
  %13 = xor i1 %12, true
  %14 = zext i1 %13 to i32
  %15 = sext i32 %14 to i64
  %16 = call i64 @llvm.expect.i64(i64 %15, i64 0)
  %17 = icmp ne i64 %16, 0
  br i1 %17, label %18, label %19

18:                                               ; preds = %1
  store i32 0, ptr %2, align 4
  store i32 1, ptr %5, align 4
  br label %98

19:                                               ; preds = %1
  %20 = load i64, ptr %4, align 8, !tbaa !20
  %21 = and i64 %20, 1024
  %22 = icmp ne i64 %21, 0
  %23 = xor i1 %22, true
  %24 = xor i1 %23, true
  %25 = zext i1 %24 to i32
  %26 = sext i32 %25 to i64
  %27 = call i64 @llvm.expect.i64(i64 %26, i64 0)
  %28 = icmp ne i64 %27, 0
  br i1 %28, label %29, label %30

29:                                               ; preds = %19
  store i32 -1, ptr %2, align 4
  store i32 1, ptr %5, align 4
  br label %98

30:                                               ; preds = %19
  %31 = load i64, ptr %4, align 8, !tbaa !20
  %32 = and i64 %31, 20971520
  %33 = icmp ne i64 %32, 0
  br i1 %33, label %34, label %39

34:                                               ; preds = %30
  %35 = load i64, ptr %4, align 8, !tbaa !20
  %36 = and i64 %35, 70368744177664
  %37 = icmp ne i64 %36, 0
  %38 = xor i1 %37, true
  br label %39

39:                                               ; preds = %34, %30
  %40 = phi i1 [ false, %30 ], [ %38, %34 ]
  %41 = xor i1 %40, true
  %42 = xor i1 %41, true
  %43 = zext i1 %42 to i32
  %44 = sext i32 %43 to i64
  %45 = call i64 @llvm.expect.i64(i64 %44, i64 0)
  %46 = icmp ne i64 %45, 0
  br i1 %46, label %47, label %48

47:                                               ; preds = %39
  store i32 -1, ptr %2, align 4
  store i32 1, ptr %5, align 4
  br label %98

48:                                               ; preds = %39
  %49 = load i64, ptr %4, align 8, !tbaa !20
  %50 = and i64 %49, 2
  %51 = icmp ne i64 %50, 0
  br i1 %51, label %52, label %57

52:                                               ; preds = %48
  %53 = load i64, ptr %4, align 8, !tbaa !20
  %54 = and i64 %53, 8192
  %55 = icmp ne i64 %54, 0
  %56 = xor i1 %55, true
  br label %57

57:                                               ; preds = %52, %48
  %58 = phi i1 [ false, %48 ], [ %56, %52 ]
  %59 = xor i1 %58, true
  %60 = xor i1 %59, true
  %61 = zext i1 %60 to i32
  %62 = sext i32 %61 to i64
  %63 = call i64 @llvm.expect.i64(i64 %62, i64 0)
  %64 = icmp ne i64 %63, 0
  br i1 %64, label %65, label %66

65:                                               ; preds = %57
  store i32 -1, ptr %2, align 4
  store i32 1, ptr %5, align 4
  br label %98

66:                                               ; preds = %57
  %67 = load ptr, ptr %3, align 8, !tbaa !24
  %68 = getelementptr inbounds nuw %struct.client, ptr %67, i32 0, i32 2
  %69 = load ptr, ptr %68, align 8, !tbaa !75
  %70 = icmp ne ptr %69, null
  %71 = xor i1 %70, true
  %72 = xor i1 %71, true
  %73 = xor i1 %72, true
  %74 = zext i1 %73 to i32
  %75 = sext i32 %74 to i64
  %76 = call i64 @llvm.expect.i64(i64 %75, i64 0)
  %77 = icmp ne i64 %76, 0
  br i1 %77, label %78, label %79

78:                                               ; preds = %66
  store i32 -1, ptr %2, align 4
  store i32 1, ptr %5, align 4
  br label %98

79:                                               ; preds = %66
  %80 = load ptr, ptr %3, align 8, !tbaa !24
  %81 = call i32 @clientHasPendingReplies(ptr noundef %80)
  %82 = icmp ne i32 %81, 0
  br i1 %82, label %97, label %83

83:                                               ; preds = %79
  %84 = load ptr, ptr %3, align 8, !tbaa !24
  %85 = getelementptr inbounds nuw %struct.client, ptr %84, i32 0, i32 4
  %86 = load i8, ptr %85, align 1, !tbaa !73
  %87 = zext i8 %86 to i32
  %88 = icmp eq i32 %87, 0
  %89 = xor i1 %88, true
  %90 = xor i1 %89, true
  %91 = zext i1 %90 to i32
  %92 = sext i32 %91 to i64
  %93 = call i64 @llvm.expect.i64(i64 %92, i64 1)
  %94 = icmp ne i64 %93, 0
  br i1 %94, label %95, label %97

95:                                               ; preds = %83
  %96 = load ptr, ptr %3, align 8, !tbaa !24
  call void @putClientInPendingWriteQueue(ptr noundef %96)
  br label %97

97:                                               ; preds = %95, %83, %79
  store i32 0, ptr %2, align 4
  store i32 1, ptr %5, align 4
  br label %98

98:                                               ; preds = %97, %78, %65, %47, %29, %18
  call void @llvm.lifetime.end.p0(i64 8, ptr %4) #16
  %99 = load i32, ptr %2, align 4
  ret i32 %99
}

; Function Attrs: nounwind uwtable
define dso_local void @addReplySds(ptr noundef %0, ptr noundef %1) #0 {
  %3 = alloca ptr, align 8
  %4 = alloca ptr, align 8
  store ptr %0, ptr %3, align 8, !tbaa !24
  store ptr %1, ptr %4, align 8, !tbaa !5
  %5 = load ptr, ptr %3, align 8, !tbaa !24
  %6 = call i32 @_prepareClientToWrite(ptr noundef %5)
  %7 = icmp ne i32 %6, 0
  br i1 %7, label %8, label %10

8:                                                ; preds = %2
  %9 = load ptr, ptr %4, align 8, !tbaa !5
  call void @sdsfree(ptr noundef %9)
  br label %16

10:                                               ; preds = %2
  %11 = load ptr, ptr %3, align 8, !tbaa !24
  %12 = load ptr, ptr %4, align 8, !tbaa !5
  %13 = load ptr, ptr %4, align 8, !tbaa !5
  %14 = call i64 @sdslen(ptr noundef %13)
  call void @_addReplyToBufferOrList(ptr noundef %11, ptr noundef %12, i64 noundef %14)
  %15 = load ptr, ptr %4, align 8, !tbaa !5
  call void @sdsfree(ptr noundef %15)
  br label %16

16:                                               ; preds = %10, %8
  ret void
}