; Function Attrs: nounwind uwtable
define dso_local void @addReplySds(ptr noundef %0, ptr noundef %1) local_unnamed_addr #0 {
  %3 = getelementptr inbounds nuw i8, ptr %0, i64 8
  %4 = load i64, ptr %3, align 8, !tbaa !86
  %5 = and i64 %4, 134217984
  %.not.i = icmp eq i64 %5, 0
  br i1 %.not.i, label %6, label %47, !prof !5

6:                                                ; preds = %2
  %7 = and i64 %4, 1024
  %.not11.i = icmp eq i64 %7, 0
  br i1 %.not11.i, label %8, label %_prepareClientToWrite.exit, !prof !5

8:                                                ; preds = %6
  %9 = and i64 %4, 20971520
  %10 = icmp ne i64 %9, 0
  %11 = and i64 %4, 70368744177664
  %.not12.i = icmp eq i64 %11, 0
  %12 = and i1 %10, %.not12.i
  %13 = and i64 %4, 8194
  %14 = icmp eq i64 %13, 2
  %or.cond.i = or i1 %14, %12
  br i1 %or.cond.i, label %_prepareClientToWrite.exit, label %15, !prof !120

15:                                               ; preds = %8
  %16 = getelementptr inbounds nuw i8, ptr %0, i64 16
  %17 = load ptr, ptr %16, align 8, !tbaa !75
  %.not14.i = icmp eq ptr %17, null
  br i1 %.not14.i, label %_prepareClientToWrite.exit, label %18, !prof !121

18:                                               ; preds = %15
  %19 = and i64 %4, 5
  %.not.i.i = icmp eq i64 %19, 1
  br i1 %.not.i.i, label %20, label %23, !prof !121

20:                                               ; preds = %18
  %21 = tail call fastcc i32 @_clientHasPendingRepliesSlave(ptr noundef nonnull readonly %0)
  %22 = icmp eq i32 %21, 0
  br i1 %22, label %30, label %47

23:                                               ; preds = %18
  %24 = getelementptr inbounds nuw i8, ptr %0, i64 776
  %25 = load i32, ptr %24, align 8, !tbaa !76
  %.not.i.i.i = icmp eq i32 %25, 0
  br i1 %.not.i.i.i, label %clientHasPendingReplies.exit.i, label %47

clientHasPendingReplies.exit.i:                   ; preds = %23
  %26 = getelementptr inbounds nuw i8, ptr %0, i64 184
  %27 = load ptr, ptr %26, align 8, !tbaa !96
  %28 = getelementptr inbounds nuw i8, ptr %27, i64 40
  %29 = load i64, ptr %28, align 8, !tbaa !122
  %.not20.i = icmp eq i64 %29, 0
  br i1 %.not20.i, label %30, label %47

30:                                               ; preds = %clientHasPendingReplies.exit.i, %20
  %31 = getelementptr inbounds nuw i8, ptr %0, i64 25
  %32 = load i8, ptr %31, align 1, !tbaa !73
  %33 = icmp eq i8 %32, 0
  br i1 %33, label %34, label %47, !prof !5

34:                                               ; preds = %30
  %35 = load i64, ptr %3, align 8, !tbaa !86
  %36 = and i64 %35, 2097152
  %.not.i17.i = icmp eq i64 %36, 0
  br i1 %.not.i17.i, label %37, label %47

37:                                               ; preds = %34
  %38 = getelementptr inbounds nuw i8, ptr %0, i64 268
  %39 = load i32, ptr %38, align 4, !tbaa !94
  switch i32 %39, label %47 [
    i32 0, label %43
    i32 12, label %43
    i32 9, label %40
  ]

40:                                               ; preds = %37
  %41 = getelementptr inbounds nuw i8, ptr %0, i64 272
  %42 = load i32, ptr %41, align 8, !tbaa !95
  %.not7.i.i = icmp eq i32 %42, 0
  br i1 %.not7.i.i, label %43, label %47

43:                                               ; preds = %40, %37, %37
  %44 = or disjoint i64 %35, 2097152
  store i64 %44, ptr %3, align 8, !tbaa !86
  %45 = load ptr, ptr getelementptr inbounds nuw (i8, ptr @server, i64 1448), align 8, !tbaa !119
  %46 = getelementptr inbounds nuw i8, ptr %0, i64 736
  tail call void @listLinkNodeHead(ptr noundef %45, ptr noundef nonnull %46) #26
  br label %47

47:                                               ; preds = %2, %30, %clientHasPendingReplies.exit.i, %34, %37, %40, %43, %23, %20
  %48 = getelementptr inbounds i8, ptr %1, i64 -1
  %49 = load i8, ptr %48, align 1, !tbaa !12
  %50 = zext i8 %49 to i32
  %51 = and i32 %50, 7
  switch i32 %51, label %sdslen.exit [
    i32 0, label %52
    i32 1, label %55
    i32 2, label %59
    i32 3, label %63
    i32 4, label %67
  ]

52:                                               ; preds = %47
  %53 = lshr i32 %50, 3
  %54 = zext nneg i32 %53 to i64
  br label %sdslen.exit

55:                                               ; preds = %47
  %56 = getelementptr inbounds i8, ptr %1, i64 -3
  %57 = load i8, ptr %56, align 1, !tbaa !12
  %58 = zext i8 %57 to i64
  br label %sdslen.exit

59:                                               ; preds = %47
  %60 = getelementptr inbounds i8, ptr %1, i64 -5
  %61 = load i16, ptr %60, align 1, !tbaa !13
  %62 = zext i16 %61 to i64
  br label %sdslen.exit

63:                                               ; preds = %47
  %64 = getelementptr inbounds i8, ptr %1, i64 -9
  %65 = load i32, ptr %64, align 1, !tbaa !15
  %66 = zext i32 %65 to i64
  br label %sdslen.exit

67:                                               ; preds = %47
  %68 = getelementptr inbounds i8, ptr %1, i64 -17
  %69 = load i64, ptr %68, align 1, !tbaa !16
  br label %sdslen.exit

sdslen.exit:                                      ; preds = %47, %52, %55, %59, %63, %67
  %.0.i6 = phi i64 [ %69, %67 ], [ %66, %63 ], [ %62, %59 ], [ %58, %55 ], [ %54, %52 ], [ 0, %47 ]
  tail call void @_addReplyToBufferOrList(ptr noundef nonnull %0, ptr noundef nonnull %1, i64 noundef %.0.i6)
  br label %_prepareClientToWrite.exit

_prepareClientToWrite.exit:                       ; preds = %6, %8, %15, %sdslen.exit
  tail call void @sdsfree(ptr noundef %1) #26
  ret void
}